target datalayout = "e-m:e-p270:32:32-p271:32:32-p272:64:64-i64:64-i128:128-f80:128-n8:16:32:64-S128"
target triple = "x86_64-pc-linux-gnu"

; Function Attrs: alwaysinline nounwind
define internal ptr @memcpy.inline(ptr noalias nonnull %0, ptr noalias nonnull %1, i64 %2) #3 {
  %4 = alloca ptr, align 8
  %5 = alloca ptr, align 8
  %6 = alloca i64, align 8
  store ptr %0, ptr %4, align 8, !tbaa !27
  store ptr %1, ptr %5, align 8, !tbaa !27
  store i64 %2, ptr %6, align 8, !tbaa !16
  %7 = load ptr, ptr %4, align 8, !tbaa !27
  %8 = load ptr, ptr %5, align 8, !tbaa !27
  %9 = load i64, ptr %6, align 8, !tbaa !16
  %10 = load ptr, ptr %4, align 8, !tbaa !27
  %11 = call i64 @llvm.objectsize.i64.p0(ptr %10, i1 false, i1 true, i1 false)
  %12 = call ptr @__memcpy_chk(ptr noundef %7, ptr noundef %8, i64 noundef %9, i64 noundef %11) #5
  ret ptr %12
}

; Function Attrs: nounwind sspstrong uwtable
define hidden void @FLAC__fixed_compute_residual(ptr noundef %0, i32 noundef %1, i32 noundef %2, ptr noundef %3) #0 {
  %5 = alloca ptr, align 8
  %6 = alloca i32, align 4
  %7 = alloca i32, align 4
  %8 = alloca ptr, align 8
  %9 = alloca i32, align 4
  %10 = alloca i32, align 4
  store ptr %0, ptr %5, align 8, !tbaa !3
  store i32 %1, ptr %6, align 4, !tbaa !8
  store i32 %2, ptr %7, align 4, !tbaa !8
  store ptr %3, ptr %8, align 8, !tbaa !3
  call void @llvm.lifetime.start.p0(i64 4, ptr %9) #5
  %11 = load i32, ptr %6, align 4, !tbaa !8
  store i32 %11, ptr %9, align 4, !tbaa !8
  call void @llvm.lifetime.start.p0(i64 4, ptr %10) #5
  %12 = load i32, ptr %7, align 4, !tbaa !8
  switch i32 %12, label %172 [
    i32 0, label %13
    i32 1, label %20
    i32 2, label %46
    i32 3, label %80
    i32 4, label %122
  ]

13:                                               ; preds = %4
  %14 = load ptr, ptr %8, align 8, !tbaa !3
  %15 = load ptr, ptr %5, align 8, !tbaa !3
  %16 = load i32, ptr %6, align 4, !tbaa !8
  %17 = zext i32 %16 to i64
  %18 = mul i64 4, %17
  %19 = call ptr @memcpy.inline(ptr noundef %14, ptr noundef %15, i64 noundef %18) #5
  br label %173

20:                                               ; preds = %4
  store i32 0, ptr %10, align 4, !tbaa !8
  br label %21

21:                                               ; preds = %42, %20
  %22 = load i32, ptr %10, align 4, !tbaa !8
  %23 = load i32, ptr %9, align 4, !tbaa !8
  %24 = icmp slt i32 %22, %23
  br i1 %24, label %25, label %45

25:                                               ; preds = %21
  %26 = load ptr, ptr %5, align 8, !tbaa !3
  %27 = load i32, ptr %10, align 4, !tbaa !8
  %28 = sext i32 %27 to i64
  %29 = getelementptr inbounds i32, ptr %26, i64 %28
  %30 = load i32, ptr %29, align 4, !tbaa !8
  %31 = load ptr, ptr %5, align 8, !tbaa !3
  %32 = load i32, ptr %10, align 4, !tbaa !8
  %33 = sub nsw i32 %32, 1
  %34 = sext i32 %33 to i64
  %35 = getelementptr inbounds i32, ptr %31, i64 %34
  %36 = load i32, ptr %35, align 4, !tbaa !8
  %37 = sub nsw i32 %30, %36
  %38 = load ptr, ptr %8, align 8, !tbaa !3
  %39 = load i32, ptr %10, align 4, !tbaa !8
  %40 = sext i32 %39 to i64
  %41 = getelementptr inbounds i32, ptr %38, i64 %40
  store i32 %37, ptr %41, align 4, !tbaa !8
  br label %42

42:                                               ; preds = %25
  %43 = load i32, ptr %10, align 4, !tbaa !8
  %44 = add nsw i32 %43, 1
  store i32 %44, ptr %10, align 4, !tbaa !8
  br label %21, !llvm.loop !23

45:                                               ; preds = %21
  br label %173

46:                                               ; preds = %4
  store i32 0, ptr %10, align 4, !tbaa !8
  br label %47

47:                                               ; preds = %76, %46
  %48 = load i32, ptr %10, align 4, !tbaa !8
  %49 = load i32, ptr %9, align 4, !tbaa !8
  %50 = icmp slt i32 %48, %49
  br i1 %50, label %51, label %79

51:                                               ; preds = %47
  %52 = load ptr, ptr %5, align 8, !tbaa !3
  %53 = load i32, ptr %10, align 4, !tbaa !8
  %54 = sext i32 %53 to i64
  %55 = getelementptr inbounds i32, ptr %52, i64 %54
  %56 = load i32, ptr %55, align 4, !tbaa !8
  %57 = load ptr, ptr %5, align 8, !tbaa !3
  %58 = load i32, ptr %10, align 4, !tbaa !8
  %59 = sub nsw i32 %58, 1
  %60 = sext i32 %59 to i64
  %61 = getelementptr inbounds i32, ptr %57, i64 %60
  %62 = load i32, ptr %61, align 4, !tbaa !8
  %63 = mul nsw i32 2, %62
  %64 = sub nsw i32 %56, %63
  %65 = load ptr, ptr %5, align 8, !tbaa !3
  %66 = load i32, ptr %10, align 4, !tbaa !8
  %67 = sub nsw i32 %66, 2
  %68 = sext i32 %67 to i64
  %69 = getelementptr inbounds i32, ptr %65, i64 %68
  %70 = load i32, ptr %69, align 4, !tbaa !8
  %71 = add nsw i32 %64, %70
  %72 = load ptr, ptr %8, align 8, !tbaa !3
  %73 = load i32, ptr %10, align 4, !tbaa !8
  %74 = sext i32 %73 to i64
  %75 = getelementptr inbounds i32, ptr %72, i64 %74
  store i32 %71, ptr %75, align 4, !tbaa !8
  br label %76

76:                                               ; preds = %51
  %77 = load i32, ptr %10, align 4, !tbaa !8
  %78 = add nsw i32 %77, 1
  store i32 %78, ptr %10, align 4, !tbaa !8
  br label %47, !llvm.loop !24

79:                                               ; preds = %47
  br label %173

80:                                               ; preds = %4
  store i32 0, ptr %10, align 4, !tbaa !8
  br label %81

81:                                               ; preds = %118, %80
  %82 = load i32, ptr %10, align 4, !tbaa !8
  %83 = load i32, ptr %9, align 4, !tbaa !8
  %84 = icmp slt i32 %82, %83
  br i1 %84, label %85, label %121

85:                                               ; preds = %81
  %86 = load ptr, ptr %5, align 8, !tbaa !3
  %87 = load i32, ptr %10, align 4, !tbaa !8
  %88 = sext i32 %87 to i64
  %89 = getelementptr inbounds i32, ptr %86, i64 %88
  %90 = load i32, ptr %89, align 4, !tbaa !8
  %91 = load ptr, ptr %5, align 8, !tbaa !3
  %92 = load i32, ptr %10, align 4, !tbaa !8
  %93 = sub nsw i32 %92, 1
  %94 = sext i32 %93 to i64
  %95 = getelementptr inbounds i32, ptr %91, i64 %94
  %96 = load i32, ptr %95, align 4, !tbaa !8
  %97 = mul nsw i32 3, %96
  %98 = sub nsw i32 %90, %97
  %99 = load ptr, ptr %5, align 8, !tbaa !3
  %100 = load i32, ptr %10, align 4, !tbaa !8
  %101 = sub nsw i32 %100, 2
  %102 = sext i32 %101 to i64
  %103 = getelementptr inbounds i32, ptr %99, i64 %102
  %104 = load i32, ptr %103, align 4, !tbaa !8
  %105 = mul nsw i32 3, %104
  %106 = add nsw i32 %98, %105
  %107 = load ptr, ptr %5, align 8, !tbaa !3
  %108 = load i32, ptr %10, align 4, !tbaa !8
  %109 = sub nsw i32 %108, 3
  %110 = sext i32 %109 to i64
  %111 = getelementptr inbounds i32, ptr %107, i64 %110
  %112 = load i32, ptr %111, align 4, !tbaa !8
  %113 = sub nsw i32 %106, %112
  %114 = load ptr, ptr %8, align 8, !tbaa !3
  %115 = load i32, ptr %10, align 4, !tbaa !8
  %116 = sext i32 %115 to i64
  %117 = getelementptr inbounds i32, ptr %114, i64 %116
  store i32 %113, ptr %117, align 4, !tbaa !8
  br label %118

118:                                              ; preds = %85
  %119 = load i32, ptr %10, align 4, !tbaa !8
  %120 = add nsw i32 %119, 1
  store i32 %120, ptr %10, align 4, !tbaa !8
  br label %81, !llvm.loop !25

121:                                              ; preds = %81
  br label %173

122:                                              ; preds = %4
  store i32 0, ptr %10, align 4, !tbaa !8
  br label %123

123:                                              ; preds = %168, %122
  %124 = load i32, ptr %10, align 4, !tbaa !8
  %125 = load i32, ptr %9, align 4, !tbaa !8
  %126 = icmp slt i32 %124, %125
  br i1 %126, label %127, label %171

127:                                              ; preds = %123
  %128 = load ptr, ptr %5, align 8, !tbaa !3
  %129 = load i32, ptr %10, align 4, !tbaa !8
  %130 = sext i32 %129 to i64
  %131 = getelementptr inbounds i32, ptr %128, i64 %130
  %132 = load i32, ptr %131, align 4, !tbaa !8
  %133 = load ptr, ptr %5, align 8, !tbaa !3
  %134 = load i32, ptr %10, align 4, !tbaa !8
  %135 = sub nsw i32 %134, 1
  %136 = sext i32 %135 to i64
  %137 = getelementptr inbounds i32, ptr %133, i64 %136
  %138 = load i32, ptr %137, align 4, !tbaa !8
  %139 = mul nsw i32 4, %138
  %140 = sub nsw i32 %132, %139
  %141 = load ptr, ptr %5, align 8, !tbaa !3
  %142 = load i32, ptr %10, align 4, !tbaa !8
  %143 = sub nsw i32 %142, 2
  %144 = sext i32 %143 to i64
  %145 = getelementptr inbounds i32, ptr %141, i64 %144
  %146 = load i32, ptr %145, align 4, !tbaa !8
  %147 = mul nsw i32 6, %146
  %148 = add nsw i32 %140, %147
  %149 = load ptr, ptr %5, align 8, !tbaa !3
  %150 = load i32, ptr %10, align 4, !tbaa !8
  %151 = sub nsw i32 %150, 3
  %152 = sext i32 %151 to i64
  %153 = getelementptr inbounds i32, ptr %149, i64 %152
  %154 = load i32, ptr %153, align 4, !tbaa !8
  %155 = mul nsw i32 4, %154
  %156 = sub nsw i32 %148, %155
  %157 = load ptr, ptr %5, align 8, !tbaa !3
  %158 = load i32, ptr %10, align 4, !tbaa !8
  %159 = sub nsw i32 %158, 4
  %160 = sext i32 %159 to i64
  %161 = getelementptr inbounds i32, ptr %157, i64 %160
  %162 = load i32, ptr %161, align 4, !tbaa !8
  %163 = add nsw i32 %156, %162
  %164 = load ptr, ptr %8, align 8, !tbaa !3
  %165 = load i32, ptr %10, align 4, !tbaa !8
  %166 = sext i32 %165 to i64
  %167 = getelementptr inbounds i32, ptr %164, i64 %166
  store i32 %163, ptr %167, align 4, !tbaa !8
  br label %168

168:                                              ; preds = %127
  %169 = load i32, ptr %10, align 4, !tbaa !8
  %170 = add nsw i32 %169, 1
  store i32 %170, ptr %10, align 4, !tbaa !8
  br label %123, !llvm.loop !26

171:                                              ; preds = %123
  br label %173

172:                                              ; preds = %4
  br label %173

173:                                              ; preds = %172, %171, %121, %79, %45, %13
  call void @llvm.lifetime.end.p0(i64 4, ptr %10) #5
  call void @llvm.lifetime.end.p0(i64 4, ptr %9) #5
  ret void
}