; Function Attrs: nofree nounwind sspstrong memory(argmem: readwrite) uwtable
define hidden void @FLAC__fixed_compute_residual(ptr noundef readonly captures(none) %0, i32 noundef %1, i32 noundef %2, ptr noundef %3) local_unnamed_addr #2 {
  switch i32 %2, label %.loopexit [
    i32 0, label %9
    i32 1, label %.preheader
    i32 2, label %.preheader54
    i32 3, label %.preheader56
    i32 4, label %.preheader58
  ]

.preheader58:                                     ; preds = %4
  %5 = icmp sgt i32 %1, 0
  br i1 %5, label %.lr.ph.preheader, label %.loopexit

.lr.ph.preheader:                                 ; preds = %.preheader58
  %wide.trip.count = zext nneg i32 %1 to i64
  br label %.lr.ph

.preheader56:                                     ; preds = %4
  %6 = icmp sgt i32 %1, 0
  br i1 %6, label %.lr.ph62.preheader, label %.loopexit

.lr.ph62.preheader:                               ; preds = %.preheader56
  %wide.trip.count76 = zext nneg i32 %1 to i64
  br label %.lr.ph62

.preheader54:                                     ; preds = %4
  %7 = icmp sgt i32 %1, 0
  br i1 %7, label %.lr.ph64.preheader, label %.loopexit

.lr.ph64.preheader:                               ; preds = %.preheader54
  %wide.trip.count81 = zext nneg i32 %1 to i64
  br label %.lr.ph64

.preheader:                                       ; preds = %4
  %8 = icmp sgt i32 %1, 0
  br i1 %8, label %.lr.ph66.preheader, label %.loopexit

.lr.ph66.preheader:                               ; preds = %.preheader
  %wide.trip.count86 = zext nneg i32 %1 to i64
  br label %.lr.ph66

9:                                                ; preds = %4
  %10 = zext i32 %1 to i64
  %11 = shl nuw nsw i64 %10, 2
  tail call void @llvm.memcpy.p0.p0.i64(ptr noundef nonnull align 1 %3, ptr noundef nonnull align 1 %0, i64 noundef range(i64 0, 17179869181) %11, i1 noundef false) #6
  br label %.loopexit

.lr.ph66:                                         ; preds = %.lr.ph66.preheader, %.lr.ph66
  %indvars.iv83 = phi i64 [ 0, %.lr.ph66.preheader ], [ %indvars.iv.next84, %.lr.ph66 ]
  %12 = getelementptr inbounds nuw i32, ptr %0, i64 %indvars.iv83
  %13 = load i32, ptr %12, align 4, !tbaa !3
  %14 = getelementptr i8, ptr %12, i64 -4
  %15 = load i32, ptr %14, align 4, !tbaa !3
  %16 = sub nsw i32 %13, %15
  %17 = getelementptr inbounds nuw i32, ptr %3, i64 %indvars.iv83
  store i32 %16, ptr %17, align 4, !tbaa !3
  %indvars.iv.next84 = add nuw nsw i64 %indvars.iv83, 1
  %exitcond87.not = icmp eq i64 %indvars.iv.next84, %wide.trip.count86
  br i1 %exitcond87.not, label %.loopexit, label %.lr.ph66, !llvm.loop !16

.lr.ph64:                                         ; preds = %.lr.ph64.preheader, %.lr.ph64
  %indvars.iv78 = phi i64 [ 0, %.lr.ph64.preheader ], [ %indvars.iv.next79, %.lr.ph64 ]
  %18 = getelementptr inbounds nuw i32, ptr %0, i64 %indvars.iv78
  %19 = load i32, ptr %18, align 4, !tbaa !3
  %20 = getelementptr i8, ptr %18, i64 -4
  %21 = load i32, ptr %20, align 4, !tbaa !3
  %22 = shl i32 %21, 1
  %23 = sub i32 %19, %22
  %24 = getelementptr i8, ptr %18, i64 -8
  %25 = load i32, ptr %24, align 4, !tbaa !3
  %26 = add nsw i32 %23, %25
  %27 = getelementptr inbounds nuw i32, ptr %3, i64 %indvars.iv78
  store i32 %26, ptr %27, align 4, !tbaa !3
  %indvars.iv.next79 = add nuw nsw i64 %indvars.iv78, 1
  %exitcond82.not = icmp eq i64 %indvars.iv.next79, %wide.trip.count81
  br i1 %exitcond82.not, label %.loopexit, label %.lr.ph64, !llvm.loop !17

.lr.ph62:                                         ; preds = %.lr.ph62.preheader, %.lr.ph62
  %indvars.iv73 = phi i64 [ 0, %.lr.ph62.preheader ], [ %indvars.iv.next74, %.lr.ph62 ]
  %28 = getelementptr inbounds nuw i32, ptr %0, i64 %indvars.iv73
  %29 = load i32, ptr %28, align 4, !tbaa !3
  %30 = getelementptr i8, ptr %28, i64 -4
  %31 = load i32, ptr %30, align 4, !tbaa !3
  %32 = getelementptr i8, ptr %28, i64 -8
  %33 = load i32, ptr %32, align 4, !tbaa !3
  %34 = getelementptr i8, ptr %28, i64 -12
  %35 = load i32, ptr %34, align 4, !tbaa !3
  %reass.add = sub i32 %33, %31
  %reass.mul = mul i32 %reass.add, 3
  %36 = sub i32 %29, %35
  %37 = add i32 %36, %reass.mul
  %38 = getelementptr inbounds nuw i32, ptr %3, i64 %indvars.iv73
  store i32 %37, ptr %38, align 4, !tbaa !3
  %indvars.iv.next74 = add nuw nsw i64 %indvars.iv73, 1
  %exitcond77.not = icmp eq i64 %indvars.iv.next74, %wide.trip.count76
  br i1 %exitcond77.not, label %.loopexit, label %.lr.ph62, !llvm.loop !18

.lr.ph:                                           ; preds = %.lr.ph.preheader, %.lr.ph
  %indvars.iv = phi i64 [ 0, %.lr.ph.preheader ], [ %indvars.iv.next, %.lr.ph ]
  %39 = getelementptr inbounds nuw i32, ptr %0, i64 %indvars.iv
  %40 = load i32, ptr %39, align 4, !tbaa !3
  %41 = getelementptr i8, ptr %39, i64 -4
  %42 = load i32, ptr %41, align 4, !tbaa !3
  %43 = getelementptr i8, ptr %39, i64 -8
  %44 = load i32, ptr %43, align 4, !tbaa !3
  %45 = mul nsw i32 %44, 6
  %46 = getelementptr i8, ptr %39, i64 -12
  %47 = load i32, ptr %46, align 4, !tbaa !3
  %48 = add i32 %45, %40
  %49 = add i32 %47, %42
  %50 = getelementptr i8, ptr %39, i64 -16
  %51 = load i32, ptr %50, align 4, !tbaa !3
  %52 = add i32 %48, %51
  %53 = shl i32 %49, 2
  %54 = sub i32 %52, %53
  %55 = getelementptr inbounds nuw i32, ptr %3, i64 %indvars.iv
  store i32 %54, ptr %55, align 4, !tbaa !3
  %indvars.iv.next = add nuw nsw i64 %indvars.iv, 1
  %exitcond.not = icmp eq i64 %indvars.iv.next, %wide.trip.count
  br i1 %exitcond.not, label %.loopexit, label %.lr.ph, !llvm.loop !19

.loopexit:                                        ; preds = %.lr.ph, %.lr.ph62, %.lr.ph64, %.lr.ph66, %.preheader58, %.preheader56, %.preheader54, %.preheader, %4, %9
  ret void
}